target datalayout = "e-m:e-p270:32:32-p271:32:32-p272:64:64-i64:64-i128:128-f80:128-n8:16:32:64-S128"
target triple = "x86_64-pc-linux-gnu"

%struct.dfvm_value_t = type { i32, %union.anon, i32 }
%union.anon = type { ptr }

; Function Attrs: nounwind uwtable
define hidden ptr @dfvm_value_new(i32 noundef %0) #0 {
  %2 = alloca i32, align 4
  %3 = alloca ptr, align 8
  store i32 %0, ptr %2, align 4
  %4 = call noalias ptr @g_malloc_n(i64 noundef 1, i64 noundef 24) #4
  store ptr %4, ptr %3, align 8
  %5 = load i32, ptr %2, align 4
  %6 = load ptr, ptr %3, align 8
  %7 = getelementptr inbounds %struct.dfvm_value_t, ptr %6, i32 0, i32 0
  store i32 %5, ptr %7, align 8
  %8 = load ptr, ptr %3, align 8
  %9 = getelementptr inbounds %struct.dfvm_value_t, ptr %8, i32 0, i32 2
  store i32 0, ptr %9, align 8
  %10 = load ptr, ptr %3, align 8
  ret ptr %10
}

; Function Attrs: nounwind uwtable
define hidden ptr @dfvm_value_new_pcre(ptr noundef %0) #0 {
  %2 = alloca ptr, align 8
  %3 = alloca ptr, align 8
  store ptr %0, ptr %2, align 8
  %4 = call ptr @dfvm_value_new(i32 noundef 9)
  store ptr %4, ptr %3, align 8
  %5 = load ptr, ptr %2, align 8
  %6 = load ptr, ptr %3, align 8
  %7 = getelementptr inbounds %struct.dfvm_value_t, ptr %6, i32 0, i32 1
  store ptr %5, ptr %7, align 8
  %8 = load ptr, ptr %3, align 8
  ret ptr %8
}